ARM GAS  /tmp/cclQMoD2.s 			page 1


   1              		.cpu cortex-m3
   2              		.eabi_attribute 20, 1
   3              		.eabi_attribute 21, 1
   4              		.eabi_attribute 23, 3
   5              		.eabi_attribute 24, 1
   6              		.eabi_attribute 25, 1
   7              		.eabi_attribute 26, 1
   8              		.eabi_attribute 30, 1
   9              		.eabi_attribute 34, 1
  10              		.eabi_attribute 18, 4
  11              		.file	"tim.c"
  12              		.text
  13              	.Ltext0:
  14              		.cfi_sections	.debug_frame
  15              		.section	.text.MX_TIM1_Init,"ax",%progbits
  16              		.align	1
  17              		.global	MX_TIM1_Init
  18              		.syntax unified
  19              		.thumb
  20              		.thumb_func
  21              		.fpu softvfp
  23              	MX_TIM1_Init:
  24              	.LFB65:
  25              		.file 1 "Core/Src/tim.c"
   1:Core/Src/tim.c **** /**
   2:Core/Src/tim.c ****   ******************************************************************************
   3:Core/Src/tim.c ****   * File Name          : TIM.c
   4:Core/Src/tim.c ****   * Description        : This file provides code for the configuration
   5:Core/Src/tim.c ****   *                      of the TIM instances.
   6:Core/Src/tim.c ****   ******************************************************************************
   7:Core/Src/tim.c ****   * @attention
   8:Core/Src/tim.c ****   *
   9:Core/Src/tim.c ****   * <h2><center>&copy; Copyright (c) 2020 STMicroelectronics.
  10:Core/Src/tim.c ****   * All rights reserved.</center></h2>
  11:Core/Src/tim.c ****   *
  12:Core/Src/tim.c ****   * This software component is licensed by ST under Ultimate Liberty license
  13:Core/Src/tim.c ****   * SLA0044, the "License"; You may not use this file except in compliance with
  14:Core/Src/tim.c ****   * the License. You may obtain a copy of the License at:
  15:Core/Src/tim.c ****   *                             www.st.com/SLA0044
  16:Core/Src/tim.c ****   *
  17:Core/Src/tim.c ****   ******************************************************************************
  18:Core/Src/tim.c ****   */
  19:Core/Src/tim.c **** 
  20:Core/Src/tim.c **** /* Includes ------------------------------------------------------------------*/
  21:Core/Src/tim.c **** #include "tim.h"
  22:Core/Src/tim.c **** 
  23:Core/Src/tim.c **** /* USER CODE BEGIN 0 */
  24:Core/Src/tim.c **** 
  25:Core/Src/tim.c **** /* USER CODE END 0 */
  26:Core/Src/tim.c **** 
  27:Core/Src/tim.c **** TIM_HandleTypeDef htim1;
  28:Core/Src/tim.c **** 
  29:Core/Src/tim.c **** /* TIM1 init function */
  30:Core/Src/tim.c **** void MX_TIM1_Init(void)
  31:Core/Src/tim.c **** {
  26              		.loc 1 31 0
  27              		.cfi_startproc
ARM GAS  /tmp/cclQMoD2.s 			page 2


  28              		@ args = 0, pretend = 0, frame = 48
  29              		@ frame_needed = 0, uses_anonymous_args = 0
  30 0000 00B5     		push	{lr}
  31              	.LCFI0:
  32              		.cfi_def_cfa_offset 4
  33              		.cfi_offset 14, -4
  34 0002 8DB0     		sub	sp, sp, #52
  35              	.LCFI1:
  36              		.cfi_def_cfa_offset 56
  32:Core/Src/tim.c ****   TIM_Encoder_InitTypeDef sConfig = {0};
  37              		.loc 1 32 0
  38 0004 2422     		movs	r2, #36
  39 0006 0021     		movs	r1, #0
  40 0008 03A8     		add	r0, sp, #12
  41 000a FFF7FEFF 		bl	memset
  42              	.LVL0:
  33:Core/Src/tim.c ****   TIM_MasterConfigTypeDef sMasterConfig = {0};
  43              		.loc 1 33 0
  44 000e 0023     		movs	r3, #0
  45 0010 0193     		str	r3, [sp, #4]
  46 0012 0293     		str	r3, [sp, #8]
  34:Core/Src/tim.c **** 
  35:Core/Src/tim.c ****   htim1.Instance = TIM1;
  47              		.loc 1 35 0
  48 0014 1248     		ldr	r0, .L7
  49 0016 134A     		ldr	r2, .L7+4
  50 0018 0260     		str	r2, [r0]
  36:Core/Src/tim.c ****   htim1.Init.Prescaler = 16;
  51              		.loc 1 36 0
  52 001a 1022     		movs	r2, #16
  53 001c 4260     		str	r2, [r0, #4]
  37:Core/Src/tim.c ****   htim1.Init.CounterMode = TIM_COUNTERMODE_UP;
  54              		.loc 1 37 0
  55 001e 8360     		str	r3, [r0, #8]
  38:Core/Src/tim.c ****   htim1.Init.Period = 65535;
  56              		.loc 1 38 0
  57 0020 4FF6FF72 		movw	r2, #65535
  58 0024 C260     		str	r2, [r0, #12]
  39:Core/Src/tim.c ****   htim1.Init.ClockDivision = TIM_CLOCKDIVISION_DIV1;
  59              		.loc 1 39 0
  60 0026 0361     		str	r3, [r0, #16]
  40:Core/Src/tim.c ****   htim1.Init.RepetitionCounter = 0;
  61              		.loc 1 40 0
  62 0028 4361     		str	r3, [r0, #20]
  41:Core/Src/tim.c ****   htim1.Init.AutoReloadPreload = TIM_AUTORELOAD_PRELOAD_DISABLE;
  63              		.loc 1 41 0
  64 002a 8361     		str	r3, [r0, #24]
  42:Core/Src/tim.c ****   sConfig.EncoderMode = TIM_ENCODERMODE_TI12;
  65              		.loc 1 42 0
  66 002c 0323     		movs	r3, #3
  67 002e 0393     		str	r3, [sp, #12]
  43:Core/Src/tim.c ****   sConfig.IC1Polarity = TIM_ICPOLARITY_RISING;
  44:Core/Src/tim.c ****   sConfig.IC1Selection = TIM_ICSELECTION_DIRECTTI;
  68              		.loc 1 44 0
  69 0030 0123     		movs	r3, #1
  70 0032 0593     		str	r3, [sp, #20]
  45:Core/Src/tim.c ****   sConfig.IC1Prescaler = TIM_ICPSC_DIV1;
ARM GAS  /tmp/cclQMoD2.s 			page 3


  46:Core/Src/tim.c ****   sConfig.IC1Filter = 0;
  47:Core/Src/tim.c ****   sConfig.IC2Polarity = TIM_ICPOLARITY_RISING;
  48:Core/Src/tim.c ****   sConfig.IC2Selection = TIM_ICSELECTION_DIRECTTI;
  71              		.loc 1 48 0
  72 0034 0993     		str	r3, [sp, #36]
  49:Core/Src/tim.c ****   sConfig.IC2Prescaler = TIM_ICPSC_DIV1;
  50:Core/Src/tim.c ****   sConfig.IC2Filter = 0;
  51:Core/Src/tim.c ****   if (HAL_TIM_Encoder_Init(&htim1, &sConfig) != HAL_OK)
  73              		.loc 1 51 0
  74 0036 03A9     		add	r1, sp, #12
  75 0038 FFF7FEFF 		bl	HAL_TIM_Encoder_Init
  76              	.LVL1:
  77 003c 50B9     		cbnz	r0, .L5
  78              	.L2:
  52:Core/Src/tim.c ****   {
  53:Core/Src/tim.c ****     Error_Handler();
  54:Core/Src/tim.c ****   }
  55:Core/Src/tim.c ****   sMasterConfig.MasterOutputTrigger = TIM_TRGO_RESET;
  79              		.loc 1 55 0
  80 003e 0023     		movs	r3, #0
  81 0040 0193     		str	r3, [sp, #4]
  56:Core/Src/tim.c ****   sMasterConfig.MasterSlaveMode = TIM_MASTERSLAVEMODE_DISABLE;
  82              		.loc 1 56 0
  83 0042 0293     		str	r3, [sp, #8]
  57:Core/Src/tim.c ****   if (HAL_TIMEx_MasterConfigSynchronization(&htim1, &sMasterConfig) != HAL_OK)
  84              		.loc 1 57 0
  85 0044 01A9     		add	r1, sp, #4
  86 0046 0648     		ldr	r0, .L7
  87 0048 FFF7FEFF 		bl	HAL_TIMEx_MasterConfigSynchronization
  88              	.LVL2:
  89 004c 28B9     		cbnz	r0, .L6
  90              	.L1:
  58:Core/Src/tim.c ****   {
  59:Core/Src/tim.c ****     Error_Handler();
  60:Core/Src/tim.c ****   }
  61:Core/Src/tim.c **** 
  62:Core/Src/tim.c **** }
  91              		.loc 1 62 0
  92 004e 0DB0     		add	sp, sp, #52
  93              	.LCFI2:
  94              		.cfi_remember_state
  95              		.cfi_def_cfa_offset 4
  96              		@ sp needed
  97 0050 5DF804FB 		ldr	pc, [sp], #4
  98              	.L5:
  99              	.LCFI3:
 100              		.cfi_restore_state
  53:Core/Src/tim.c ****   }
 101              		.loc 1 53 0
 102 0054 FFF7FEFF 		bl	Error_Handler
 103              	.LVL3:
 104 0058 F1E7     		b	.L2
 105              	.L6:
  59:Core/Src/tim.c ****   }
 106              		.loc 1 59 0
 107 005a FFF7FEFF 		bl	Error_Handler
 108              	.LVL4:
ARM GAS  /tmp/cclQMoD2.s 			page 4


 109              		.loc 1 62 0
 110 005e F6E7     		b	.L1
 111              	.L8:
 112              		.align	2
 113              	.L7:
 114 0060 00000000 		.word	htim1
 115 0064 002C0140 		.word	1073818624
 116              		.cfi_endproc
 117              	.LFE65:
 119              		.section	.text.HAL_TIM_Encoder_MspInit,"ax",%progbits
 120              		.align	1
 121              		.global	HAL_TIM_Encoder_MspInit
 122              		.syntax unified
 123              		.thumb
 124              		.thumb_func
 125              		.fpu softvfp
 127              	HAL_TIM_Encoder_MspInit:
 128              	.LFB66:
  63:Core/Src/tim.c **** 
  64:Core/Src/tim.c **** void HAL_TIM_Encoder_MspInit(TIM_HandleTypeDef* tim_encoderHandle)
  65:Core/Src/tim.c **** {
 129              		.loc 1 65 0
 130              		.cfi_startproc
 131              		@ args = 0, pretend = 0, frame = 24
 132              		@ frame_needed = 0, uses_anonymous_args = 0
 133              	.LVL5:
 134 0000 00B5     		push	{lr}
 135              	.LCFI4:
 136              		.cfi_def_cfa_offset 4
 137              		.cfi_offset 14, -4
 138 0002 87B0     		sub	sp, sp, #28
 139              	.LCFI5:
 140              		.cfi_def_cfa_offset 32
  66:Core/Src/tim.c **** 
  67:Core/Src/tim.c ****   GPIO_InitTypeDef GPIO_InitStruct = {0};
 141              		.loc 1 67 0
 142 0004 0023     		movs	r3, #0
 143 0006 0293     		str	r3, [sp, #8]
 144 0008 0393     		str	r3, [sp, #12]
 145 000a 0493     		str	r3, [sp, #16]
 146 000c 0593     		str	r3, [sp, #20]
  68:Core/Src/tim.c ****   if(tim_encoderHandle->Instance==TIM1)
 147              		.loc 1 68 0
 148 000e 0268     		ldr	r2, [r0]
 149 0010 114B     		ldr	r3, .L13
 150 0012 9A42     		cmp	r2, r3
 151 0014 02D0     		beq	.L12
 152              	.LVL6:
 153              	.L9:
  69:Core/Src/tim.c ****   {
  70:Core/Src/tim.c ****   /* USER CODE BEGIN TIM1_MspInit 0 */
  71:Core/Src/tim.c **** 
  72:Core/Src/tim.c ****   /* USER CODE END TIM1_MspInit 0 */
  73:Core/Src/tim.c ****     /* TIM1 clock enable */
  74:Core/Src/tim.c ****     __HAL_RCC_TIM1_CLK_ENABLE();
  75:Core/Src/tim.c ****   
  76:Core/Src/tim.c ****     __HAL_RCC_GPIOA_CLK_ENABLE();
ARM GAS  /tmp/cclQMoD2.s 			page 5


  77:Core/Src/tim.c ****     /**TIM1 GPIO Configuration    
  78:Core/Src/tim.c ****     PA8     ------> TIM1_CH1
  79:Core/Src/tim.c ****     PA9     ------> TIM1_CH2 
  80:Core/Src/tim.c ****     */
  81:Core/Src/tim.c ****     GPIO_InitStruct.Pin = GPIO_PIN_8|GPIO_PIN_9;
  82:Core/Src/tim.c ****     GPIO_InitStruct.Mode = GPIO_MODE_INPUT;
  83:Core/Src/tim.c ****     GPIO_InitStruct.Pull = GPIO_NOPULL;
  84:Core/Src/tim.c ****     HAL_GPIO_Init(GPIOA, &GPIO_InitStruct);
  85:Core/Src/tim.c **** 
  86:Core/Src/tim.c ****   /* USER CODE BEGIN TIM1_MspInit 1 */
  87:Core/Src/tim.c **** 
  88:Core/Src/tim.c ****   /* USER CODE END TIM1_MspInit 1 */
  89:Core/Src/tim.c ****   }
  90:Core/Src/tim.c **** }
 154              		.loc 1 90 0
 155 0016 07B0     		add	sp, sp, #28
 156              	.LCFI6:
 157              		.cfi_remember_state
 158              		.cfi_def_cfa_offset 4
 159              		@ sp needed
 160 0018 5DF804FB 		ldr	pc, [sp], #4
 161              	.LVL7:
 162              	.L12:
 163              	.LCFI7:
 164              		.cfi_restore_state
 165              	.LBB2:
  74:Core/Src/tim.c ****   
 166              		.loc 1 74 0
 167 001c 03F56443 		add	r3, r3, #58368
 168 0020 9A69     		ldr	r2, [r3, #24]
 169 0022 42F40062 		orr	r2, r2, #2048
 170 0026 9A61     		str	r2, [r3, #24]
 171 0028 9A69     		ldr	r2, [r3, #24]
 172 002a 02F40062 		and	r2, r2, #2048
 173 002e 0092     		str	r2, [sp]
 174 0030 009A     		ldr	r2, [sp]
 175              	.LBE2:
 176              	.LBB3:
  76:Core/Src/tim.c ****     /**TIM1 GPIO Configuration    
 177              		.loc 1 76 0
 178 0032 9A69     		ldr	r2, [r3, #24]
 179 0034 42F00402 		orr	r2, r2, #4
 180 0038 9A61     		str	r2, [r3, #24]
 181 003a 9B69     		ldr	r3, [r3, #24]
 182 003c 03F00403 		and	r3, r3, #4
 183 0040 0193     		str	r3, [sp, #4]
 184 0042 019B     		ldr	r3, [sp, #4]
 185              	.LBE3:
  81:Core/Src/tim.c ****     GPIO_InitStruct.Mode = GPIO_MODE_INPUT;
 186              		.loc 1 81 0
 187 0044 06A9     		add	r1, sp, #24
 188 0046 4FF44073 		mov	r3, #768
 189 004a 41F8103D 		str	r3, [r1, #-16]!
  84:Core/Src/tim.c **** 
 190              		.loc 1 84 0
 191 004e 0348     		ldr	r0, .L13+4
 192              	.LVL8:
ARM GAS  /tmp/cclQMoD2.s 			page 6


 193 0050 FFF7FEFF 		bl	HAL_GPIO_Init
 194              	.LVL9:
 195              		.loc 1 90 0
 196 0054 DFE7     		b	.L9
 197              	.L14:
 198 0056 00BF     		.align	2
 199              	.L13:
 200 0058 002C0140 		.word	1073818624
 201 005c 00080140 		.word	1073809408
 202              		.cfi_endproc
 203              	.LFE66:
 205              		.section	.text.HAL_TIM_Encoder_MspDeInit,"ax",%progbits
 206              		.align	1
 207              		.global	HAL_TIM_Encoder_MspDeInit
 208              		.syntax unified
 209              		.thumb
 210              		.thumb_func
 211              		.fpu softvfp
 213              	HAL_TIM_Encoder_MspDeInit:
 214              	.LFB67:
  91:Core/Src/tim.c **** 
  92:Core/Src/tim.c **** void HAL_TIM_Encoder_MspDeInit(TIM_HandleTypeDef* tim_encoderHandle)
  93:Core/Src/tim.c **** {
 215              		.loc 1 93 0
 216              		.cfi_startproc
 217              		@ args = 0, pretend = 0, frame = 0
 218              		@ frame_needed = 0, uses_anonymous_args = 0
 219              	.LVL10:
 220 0000 08B5     		push	{r3, lr}
 221              	.LCFI8:
 222              		.cfi_def_cfa_offset 8
 223              		.cfi_offset 3, -8
 224              		.cfi_offset 14, -4
  94:Core/Src/tim.c **** 
  95:Core/Src/tim.c ****   if(tim_encoderHandle->Instance==TIM1)
 225              		.loc 1 95 0
 226 0002 0268     		ldr	r2, [r0]
 227 0004 074B     		ldr	r3, .L19
 228 0006 9A42     		cmp	r2, r3
 229 0008 00D0     		beq	.L18
 230              	.LVL11:
 231              	.L15:
 232 000a 08BD     		pop	{r3, pc}
 233              	.LVL12:
 234              	.L18:
  96:Core/Src/tim.c ****   {
  97:Core/Src/tim.c ****   /* USER CODE BEGIN TIM1_MspDeInit 0 */
  98:Core/Src/tim.c **** 
  99:Core/Src/tim.c ****   /* USER CODE END TIM1_MspDeInit 0 */
 100:Core/Src/tim.c ****     /* Peripheral clock disable */
 101:Core/Src/tim.c ****     __HAL_RCC_TIM1_CLK_DISABLE();
 235              		.loc 1 101 0
 236 000c 064A     		ldr	r2, .L19+4
 237 000e 9369     		ldr	r3, [r2, #24]
 238 0010 23F40063 		bic	r3, r3, #2048
 239 0014 9361     		str	r3, [r2, #24]
 102:Core/Src/tim.c ****   
ARM GAS  /tmp/cclQMoD2.s 			page 7


 103:Core/Src/tim.c ****     /**TIM1 GPIO Configuration    
 104:Core/Src/tim.c ****     PA8     ------> TIM1_CH1
 105:Core/Src/tim.c ****     PA9     ------> TIM1_CH2 
 106:Core/Src/tim.c ****     */
 107:Core/Src/tim.c ****     HAL_GPIO_DeInit(GPIOA, GPIO_PIN_8|GPIO_PIN_9);
 240              		.loc 1 107 0
 241 0016 4FF44071 		mov	r1, #768
 242 001a 0448     		ldr	r0, .L19+8
 243              	.LVL13:
 244 001c FFF7FEFF 		bl	HAL_GPIO_DeInit
 245              	.LVL14:
 108:Core/Src/tim.c **** 
 109:Core/Src/tim.c ****   /* USER CODE BEGIN TIM1_MspDeInit 1 */
 110:Core/Src/tim.c **** 
 111:Core/Src/tim.c ****   /* USER CODE END TIM1_MspDeInit 1 */
 112:Core/Src/tim.c ****   }
 113:Core/Src/tim.c **** } 
 246              		.loc 1 113 0
 247 0020 F3E7     		b	.L15
 248              	.L20:
 249 0022 00BF     		.align	2
 250              	.L19:
 251 0024 002C0140 		.word	1073818624
 252 0028 00100240 		.word	1073876992
 253 002c 00080140 		.word	1073809408
 254              		.cfi_endproc
 255              	.LFE67:
 257              		.comm	htim1,64,4
 258              		.text
 259              	.Letext0:
 260              		.file 2 "/usr/include/newlib/machine/_default_types.h"
 261              		.file 3 "/usr/include/newlib/sys/_stdint.h"
 262              		.file 4 "Drivers/CMSIS/Include/core_cm3.h"
 263              		.file 5 "Drivers/CMSIS/Device/ST/STM32F1xx/Include/system_stm32f1xx.h"
 264              		.file 6 "Drivers/CMSIS/Device/ST/STM32F1xx/Include/stm32f103xb.h"
 265              		.file 7 "Drivers/STM32F1xx_HAL_Driver/Inc/stm32f1xx_hal_def.h"
 266              		.file 8 "Drivers/STM32F1xx_HAL_Driver/Inc/stm32f1xx_hal_gpio.h"
 267              		.file 9 "Drivers/STM32F1xx_HAL_Driver/Inc/stm32f1xx_hal_dma.h"
 268              		.file 10 "Drivers/STM32F1xx_HAL_Driver/Inc/stm32f1xx_hal_tim.h"
 269              		.file 11 "Drivers/STM32F1xx_HAL_Driver/Inc/stm32f1xx_hal.h"
 270              		.file 12 "Core/Inc/tim.h"
 271              		.file 13 "Drivers/STM32F1xx_HAL_Driver/Inc/stm32f1xx_hal_tim_ex.h"
 272              		.file 14 "Core/Inc/main.h"
ARM GAS  /tmp/cclQMoD2.s 			page 8

